; Function Attrs: mustprogress uwtable
define internal noalias noundef nonnull ptr @_ZNK7testing8internal30ValuesInIteratorRangeGeneratorIN12_GLOBAL__N_16ZParamEE8Iterator5CloneEv(ptr nocapture noundef nonnull readonly align 8 dereferenceable(32) %this) unnamed_addr #4 align 2 personality ptr @__gxx_personality_v0 {
entry:
  %call = tail call noalias noundef nonnull dereferenceable(32) ptr @_Znwm(i64 noundef 32) #36
  store ptr getelementptr inbounds ({ [9 x ptr] }, ptr @_ZTVN7testing8internal30ValuesInIteratorRangeGeneratorIN12_GLOBAL__N_16ZParamEE8IteratorE, i64 0, i32 0, i64 2), ptr %call, align 8
  %base_.i = getelementptr inbounds i8, ptr %call, i64 8
  %base_2.i = getelementptr inbounds i8, ptr %this, i64 8
  %0 = load ptr, ptr %base_2.i, align 8
  store ptr %0, ptr %base_.i, align 8
  %iterator_.i = getelementptr inbounds i8, ptr %call, i64 16
  %iterator_3.i = getelementptr inbounds i8, ptr %this, i64 16
  %1 = load i64, ptr %iterator_3.i, align 8
  store i64 %1, ptr %iterator_.i, align 8
  %value_.i = getelementptr inbounds i8, ptr %call, i64 24
  store ptr null, ptr %value_.i, align 8
  ret ptr %call
}